   1              		.cpu arm7tdmi
   2              		.fpu softvfp
   3              		.eabi_attribute 20, 1
   4              		.eabi_attribute 21, 1
   5              		.eabi_attribute 23, 3
   6              		.eabi_attribute 24, 1
   7              		.eabi_attribute 25, 1
   8              		.eabi_attribute 26, 1
   9              		.eabi_attribute 30, 6
  10              		.eabi_attribute 18, 4
  11              		.file	"pbs.c"
  21              	.Ltext0:
  22              		.file 1 "../src/pbs.c"
 1917              		.align	2
 1918              		.global	pbs_init
 1920              	pbs_init:
 1921              	.LFB0:
   1:../src/pbs.c  **** 
   2:../src/pbs.c  **** #include <s3c44b0x.h>
   3:../src/pbs.c  **** #include <s3cev40.h>
   4:../src/pbs.c  **** #include <pbs.h>
   5:../src/pbs.c  **** #include <timers.h>
   6:../src/pbs.c  **** 
   7:../src/pbs.c  **** extern void isr_PB_dummy( void );
   8:../src/pbs.c  **** 
   9:../src/pbs.c  **** void pbs_init( void )
  10:../src/pbs.c  **** {
 1922              		.loc 1 10 0
 1923              		.cfi_startproc
 1924              		@ Function supports interworking.
 1925              		@ args = 0, pretend = 0, frame = 0
 1926              		@ frame_needed = 1, uses_anonymous_args = 0
 1927 0000 0DC0A0E1 		mov	ip, sp
 1928              	.LCFI0:
 1929              		.cfi_def_cfa_register 12
 1930 0004 00D82DE9 		stmfd	sp!, {fp, ip, lr, pc}
 1931 0008 04B04CE2 		sub	fp, ip, #4
 1932              		.cfi_offset 14, -8
 1933              		.cfi_offset 13, -12
 1934              		.cfi_offset 11, -16
 1935              	.LCFI1:
 1936              		.cfi_def_cfa 11, 4
  11:../src/pbs.c  ****     timers_init();
 1937              		.loc 1 11 0
 1938 000c FEFFFFEB 		bl	timers_init
  12:../src/pbs.c  **** }
 1939              		.loc 1 12 0
 1940 0010 0CD04BE2 		sub	sp, fp, #12
 1941 0014 00689DE8 		ldmfd	sp, {fp, sp, lr}
 1942 0018 1EFF2FE1 		bx	lr
 1943              		.cfi_endproc
 1944              	.LFE0:
 1946              		.align	2
 1947              		.global	pb_scan
 1949              	pb_scan:
 1950              	.LFB1:
  13:../src/pbs.c  **** 
  14:../src/pbs.c  **** uint8 pb_scan( void )
  15:../src/pbs.c  **** {
 1951              		.loc 1 15 0
 1952              		.cfi_startproc
 1953              		@ Function supports interworking.
 1954              		@ args = 0, pretend = 0, frame = 0
 1955              		@ frame_needed = 1, uses_anonymous_args = 0
 1956 001c 0DC0A0E1 		mov	ip, sp
 1957              	.LCFI2:
 1958              		.cfi_def_cfa_register 12
 1959 0020 00D82DE9 		stmfd	sp!, {fp, ip, lr, pc}
 1960 0024 04B04CE2 		sub	fp, ip, #4
 1961              		.cfi_offset 14, -8
 1962              		.cfi_offset 13, -12
 1963              		.cfi_offset 11, -16
 1964              	.LCFI3:
 1965              		.cfi_def_cfa 11, 4
  16:../src/pbs.c  ****     if( PDATG & (1 << 6) )
 1966              		.loc 1 16 0
 1967 0028 44309FE5 		ldr	r3, .L6
 1968 002c 003093E5 		ldr	r3, [r3, #0]
 1969 0030 403003E2 		and	r3, r3, #64
 1970 0034 000053E3 		cmp	r3, #0
 1971 0038 0100000A 		beq	.L3
  17:../src/pbs.c  ****         return PB_RIGHT;
 1972              		.loc 1 17 0
 1973 003c 8030A0E3 		mov	r3, #128
 1974 0040 070000EA 		b	.L4
 1975              	.L3:
  18:../src/pbs.c  ****     else if( PDATG & (1 << 7) )
 1976              		.loc 1 18 0
 1977 0044 28309FE5 		ldr	r3, .L6
 1978 0048 003093E5 		ldr	r3, [r3, #0]
 1979 004c 803003E2 		and	r3, r3, #128
 1980 0050 000053E3 		cmp	r3, #0
 1981 0054 0100000A 		beq	.L5
  19:../src/pbs.c  ****         return PB_LEFT;
 1982              		.loc 1 19 0
 1983 0058 4030A0E3 		mov	r3, #64
 1984 005c 000000EA 		b	.L4
 1985              	.L5:
  20:../src/pbs.c  ****     else
  21:../src/pbs.c  ****         return PB_FAILURE;
 1986              		.loc 1 21 0
 1987 0060 FF30A0E3 		mov	r3, #255
 1988              	.L4:
  22:../src/pbs.c  **** }
 1989              		.loc 1 22 0
 1990 0064 0300A0E1 		mov	r0, r3
 1991 0068 0CD04BE2 		sub	sp, fp, #12
 1992 006c 00689DE8 		ldmfd	sp, {fp, sp, lr}
 1993 0070 1EFF2FE1 		bx	lr
 1994              	.L7:
 1995              		.align	2
 1996              	.L6:
 1997 0074 4400D201 		.word	30539844
 1998              		.cfi_endproc
 1999              	.LFE1:
 2001              		.align	2
 2002              		.global	pb_status
 2004              	pb_status:
 2005              	.LFB2:
  23:../src/pbs.c  **** 
  24:../src/pbs.c  **** uint8 pb_status( uint8 scancode )
  25:../src/pbs.c  **** {
 2006              		.loc 1 25 0
 2007              		.cfi_startproc
 2008              		@ Function supports interworking.
 2009              		@ args = 0, pretend = 0, frame = 8
 2010              		@ frame_needed = 1, uses_anonymous_args = 0
 2011 0078 0DC0A0E1 		mov	ip, sp
 2012              	.LCFI4:
 2013              		.cfi_def_cfa_register 12
 2014 007c 00D82DE9 		stmfd	sp!, {fp, ip, lr, pc}
 2015 0080 04B04CE2 		sub	fp, ip, #4
 2016              		.cfi_offset 14, -8
 2017              		.cfi_offset 13, -12
 2018              		.cfi_offset 11, -16
 2019              	.LCFI5:
 2020              		.cfi_def_cfa 11, 4
 2021 0084 08D04DE2 		sub	sp, sp, #8
 2022 0088 0030A0E1 		mov	r3, r0
 2023 008c 0D304BE5 		strb	r3, [fp, #-13]
  26:../src/pbs.c  **** 
  27:../src/pbs.c  **** 
  28:../src/pbs.c  **** switch(scancode){
 2024              		.loc 1 28 0
 2025 0090 0D305BE5 		ldrb	r3, [fp, #-13]	@ zero_extendqisi2
 2026 0094 400053E3 		cmp	r3, #64
 2027 0098 0200000A 		beq	.L10
 2028 009c 800053E3 		cmp	r3, #128
 2029 00a0 0900000A 		beq	.L11
 2030 00a4 110000EA 		b	.L15
 2031              	.L10:
  29:../src/pbs.c  **** 	case PB_LEFT:
  30:../src/pbs.c  **** 			if(PDATG & (1 << 6)){
 2032              		.loc 1 30 0
 2033 00a8 54309FE5 		ldr	r3, .L16
 2034 00ac 003093E5 		ldr	r3, [r3, #0]
 2035 00b0 403003E2 		and	r3, r3, #64
 2036 00b4 000053E3 		cmp	r3, #0
 2037 00b8 0100000A 		beq	.L12
  31:../src/pbs.c  **** 				return  PB_DOWN ;
 2038              		.loc 1 31 0
 2039 00bc 0130A0E3 		mov	r3, #1
 2040 00c0 0B0000EA 		b	.L13
 2041              	.L12:
  32:../src/pbs.c  **** 			}else{
  33:../src/pbs.c  **** 				return PB_UP;
 2042              		.loc 1 33 0
 2043 00c4 0030A0E3 		mov	r3, #0
 2044 00c8 090000EA 		b	.L13
 2045              	.L11:
  34:../src/pbs.c  **** 			}
  35:../src/pbs.c  **** 			 break;
  36:../src/pbs.c  ****    case PB_RIGHT:
  37:../src/pbs.c  **** 			 if(PDATG & (1 << 7)){
 2046              		.loc 1 37 0
 2047 00cc 30309FE5 		ldr	r3, .L16
 2048 00d0 003093E5 		ldr	r3, [r3, #0]
 2049 00d4 803003E2 		and	r3, r3, #128
 2050 00d8 000053E3 		cmp	r3, #0
 2051 00dc 0100000A 		beq	.L14
  38:../src/pbs.c  **** 				return  PB_DOWN ;
 2052              		.loc 1 38 0
 2053 00e0 0130A0E3 		mov	r3, #1
 2054 00e4 020000EA 		b	.L13
 2055              	.L14:
  39:../src/pbs.c  **** 			 }else{
  40:../src/pbs.c  **** 				return PB_UP;
 2056              		.loc 1 40 0
 2057 00e8 0030A0E3 		mov	r3, #0
 2058 00ec 000000EA 		b	.L13
 2059              	.L15:
 2060 00f0 FFFFFFEA 		b	.L8
 2061              	.L13:
 2062              	.L8:
  41:../src/pbs.c  **** 			 }
  42:../src/pbs.c  **** 			 break;
  43:../src/pbs.c  ****  }
  44:../src/pbs.c  **** }
 2063              		.loc 1 44 0
 2064 00f4 0300A0E1 		mov	r0, r3
 2065 00f8 0CD04BE2 		sub	sp, fp, #12
 2066 00fc 00689DE8 		ldmfd	sp, {fp, sp, lr}
 2067 0100 1EFF2FE1 		bx	lr
 2068              	.L17:
 2069              		.align	2
 2070              	.L16:
 2071 0104 4400D201 		.word	30539844
 2072              		.cfi_endproc
 2073              	.LFE2:
 2075              		.align	2
 2076              		.global	pb_wait_keydown
 2078              	pb_wait_keydown:
 2079              	.LFB3:
  45:../src/pbs.c  **** 
  46:../src/pbs.c  **** void pb_wait_keydown( uint8 scancode )
  47:../src/pbs.c  **** {
 2080              		.loc 1 47 0
 2081              		.cfi_startproc
 2082              		@ Function supports interworking.
 2083              		@ args = 0, pretend = 0, frame = 8
 2084              		@ frame_needed = 1, uses_anonymous_args = 0
 2085 0108 0DC0A0E1 		mov	ip, sp
 2086              	.LCFI6:
 2087              		.cfi_def_cfa_register 12
 2088 010c 00D82DE9 		stmfd	sp!, {fp, ip, lr, pc}
 2089 0110 04B04CE2 		sub	fp, ip, #4
 2090              		.cfi_offset 14, -8
 2091              		.cfi_offset 13, -12
 2092              		.cfi_offset 11, -16
 2093              	.LCFI7:
 2094              		.cfi_def_cfa 11, 4
 2095 0114 08D04DE2 		sub	sp, sp, #8
 2096 0118 0030A0E1 		mov	r3, r0
 2097 011c 0D304BE5 		strb	r3, [fp, #-13]
  48:../src/pbs.c  **** 
  49:../src/pbs.c  **** 
  50:../src/pbs.c  **** 
  51:../src/pbs.c  **** 	while(PDATG & scancode);
 2098              		.loc 1 51 0
 2099 0120 0000A0E1 		mov	r0, r0	@ nop
 2100              	.L19:
 2101              		.loc 1 51 0 is_stmt 0 discriminator 1
 2102 0124 24309FE5 		ldr	r3, .L20
 2103 0128 002093E5 		ldr	r2, [r3, #0]
 2104 012c 0D305BE5 		ldrb	r3, [fp, #-13]	@ zero_extendqisi2
 2105 0130 033002E0 		and	r3, r2, r3
 2106 0134 000053E3 		cmp	r3, #0
 2107 0138 F9FFFF1A 		bne	.L19
  52:../src/pbs.c  **** 
  53:../src/pbs.c  **** 
  54:../src/pbs.c  **** 	 sw_delay_ms( PB_KEYDOWN_DELAY );
 2108              		.loc 1 54 0 is_stmt 1
 2109 013c 1E00A0E3 		mov	r0, #30
 2110 0140 FEFFFFEB 		bl	sw_delay_ms
  55:../src/pbs.c  **** 
  56:../src/pbs.c  **** 
  57:../src/pbs.c  **** 
  58:../src/pbs.c  **** }
 2111              		.loc 1 58 0
 2112 0144 0CD04BE2 		sub	sp, fp, #12
 2113 0148 00689DE8 		ldmfd	sp, {fp, sp, lr}
 2114 014c 1EFF2FE1 		bx	lr
 2115              	.L21:
 2116              		.align	2
 2117              	.L20:
 2118 0150 4400D201 		.word	30539844
 2119              		.cfi_endproc
 2120              	.LFE3:
 2122              		.align	2
 2123              		.global	pb_wait_keyup
 2125              	pb_wait_keyup:
 2126              	.LFB4:
  59:../src/pbs.c  **** 
  60:../src/pbs.c  **** void pb_wait_keyup( uint8 scancode )
  61:../src/pbs.c  **** {
 2127              		.loc 1 61 0
 2128              		.cfi_startproc
 2129              		@ Function supports interworking.
 2130              		@ args = 0, pretend = 0, frame = 8
 2131              		@ frame_needed = 1, uses_anonymous_args = 0
 2132 0154 0DC0A0E1 		mov	ip, sp
 2133              	.LCFI8:
 2134              		.cfi_def_cfa_register 12
 2135 0158 00D82DE9 		stmfd	sp!, {fp, ip, lr, pc}
 2136 015c 04B04CE2 		sub	fp, ip, #4
 2137              		.cfi_offset 14, -8
 2138              		.cfi_offset 13, -12
 2139              		.cfi_offset 11, -16
 2140              	.LCFI9:
 2141              		.cfi_def_cfa 11, 4
 2142 0160 08D04DE2 		sub	sp, sp, #8
 2143 0164 0030A0E1 		mov	r3, r0
 2144 0168 0D304BE5 		strb	r3, [fp, #-13]
  62:../src/pbs.c  **** 
  63:../src/pbs.c  **** 
  64:../src/pbs.c  **** 	 while(PDATG & scancode);
 2145              		.loc 1 64 0
 2146 016c 0000A0E1 		mov	r0, r0	@ nop
 2147              	.L23:
 2148              		.loc 1 64 0 is_stmt 0 discriminator 1
 2149 0170 48309FE5 		ldr	r3, .L25
 2150 0174 002093E5 		ldr	r2, [r3, #0]
 2151 0178 0D305BE5 		ldrb	r3, [fp, #-13]	@ zero_extendqisi2
 2152 017c 033002E0 		and	r3, r2, r3
 2153 0180 000053E3 		cmp	r3, #0
 2154 0184 F9FFFF1A 		bne	.L23
  65:../src/pbs.c  **** 	 sw_delay_ms( PB_KEYDOWN_DELAY );
 2155              		.loc 1 65 0 is_stmt 1
 2156 0188 1E00A0E3 		mov	r0, #30
 2157 018c FEFFFFEB 		bl	sw_delay_ms
  66:../src/pbs.c  **** 	 while((PDATG & scancode) == 0);
 2158              		.loc 1 66 0
 2159 0190 0000A0E1 		mov	r0, r0	@ nop
 2160              	.L24:
 2161              		.loc 1 66 0 is_stmt 0 discriminator 1
 2162 0194 24309FE5 		ldr	r3, .L25
 2163 0198 002093E5 		ldr	r2, [r3, #0]
 2164 019c 0D305BE5 		ldrb	r3, [fp, #-13]	@ zero_extendqisi2
 2165 01a0 033002E0 		and	r3, r2, r3
 2166 01a4 000053E3 		cmp	r3, #0
 2167 01a8 F9FFFF0A 		beq	.L24
  67:../src/pbs.c  **** 	 sw_delay_ms( PB_KEYUP_DELAY );
 2168              		.loc 1 67 0 is_stmt 1
 2169 01ac 6400A0E3 		mov	r0, #100
 2170 01b0 FEFFFFEB 		bl	sw_delay_ms
  68:../src/pbs.c  **** }
 2171              		.loc 1 68 0
 2172 01b4 0CD04BE2 		sub	sp, fp, #12
 2173 01b8 00689DE8 		ldmfd	sp, {fp, sp, lr}
 2174 01bc 1EFF2FE1 		bx	lr
 2175              	.L26:
 2176              		.align	2
 2177              	.L25:
 2178 01c0 4400D201 		.word	30539844
 2179              		.cfi_endproc
 2180              	.LFE4:
 2182              		.align	2
 2183              		.global	pb_wait_any_keydown
 2185              	pb_wait_any_keydown:
 2186              	.LFB5:
  69:../src/pbs.c  **** 
  70:../src/pbs.c  **** void pb_wait_any_keydown( void )
  71:../src/pbs.c  **** {
 2187              		.loc 1 71 0
 2188              		.cfi_startproc
 2189              		@ Function supports interworking.
 2190              		@ args = 0, pretend = 0, frame = 0
 2191              		@ frame_needed = 1, uses_anonymous_args = 0
 2192 01c4 0DC0A0E1 		mov	ip, sp
 2193              	.LCFI10:
 2194              		.cfi_def_cfa_register 12
 2195 01c8 00D82DE9 		stmfd	sp!, {fp, ip, lr, pc}
 2196 01cc 04B04CE2 		sub	fp, ip, #4
 2197              		.cfi_offset 14, -8
 2198              		.cfi_offset 13, -12
 2199              		.cfi_offset 11, -16
 2200              	.LCFI11:
 2201              		.cfi_def_cfa 11, 4
  72:../src/pbs.c  **** 	uint8 res;
  73:../src/pbs.c  **** 
  74:../src/pbs.c  **** 
  75:../src/pbs.c  **** 	while(!((PDATG & PB_LEFT) && (PDATG & PB_RIGHT) ));
 2202              		.loc 1 75 0
 2203 01d0 0000A0E1 		mov	r0, r0	@ nop
 2204              	.L28:
 2205              		.loc 1 75 0 is_stmt 0 discriminator 1
 2206 01d4 2C309FE5 		ldr	r3, .L29
 2207 01d8 003093E5 		ldr	r3, [r3, #0]
 2208 01dc 403003E2 		and	r3, r3, #64
 2209 01e0 000053E3 		cmp	r3, #0
 2210 01e4 FAFFFF0A 		beq	.L28
 2211              		.loc 1 75 0 discriminator 2
 2212 01e8 18309FE5 		ldr	r3, .L29
 2213 01ec 003093E5 		ldr	r3, [r3, #0]
 2214 01f0 803003E2 		and	r3, r3, #128
 2215 01f4 000053E3 		cmp	r3, #0
 2216 01f8 F5FFFF0A 		beq	.L28
  76:../src/pbs.c  **** 
  77:../src/pbs.c  **** }
 2217              		.loc 1 77 0 is_stmt 1
 2218 01fc 0CD04BE2 		sub	sp, fp, #12
 2219 0200 00689DE8 		ldmfd	sp, {fp, sp, lr}
 2220 0204 1EFF2FE1 		bx	lr
 2221              	.L30:
 2222              		.align	2
 2223              	.L29:
 2224 0208 4400D201 		.word	30539844
 2225              		.cfi_endproc
 2226              	.LFE5:
 2228              		.align	2
 2229              		.global	pb_wait_any_keyup
 2231              	pb_wait_any_keyup:
 2232              	.LFB6:
  78:../src/pbs.c  **** 
  79:../src/pbs.c  **** void pb_wait_any_keyup( void )
  80:../src/pbs.c  **** {
 2233              		.loc 1 80 0
 2234              		.cfi_startproc
 2235              		@ Function supports interworking.
 2236              		@ args = 0, pretend = 0, frame = 0
 2237              		@ frame_needed = 1, uses_anonymous_args = 0
 2238 020c 0DC0A0E1 		mov	ip, sp
 2239              	.LCFI12:
 2240              		.cfi_def_cfa_register 12
 2241 0210 00D82DE9 		stmfd	sp!, {fp, ip, lr, pc}
 2242 0214 04B04CE2 		sub	fp, ip, #4
 2243              		.cfi_offset 14, -8
 2244              		.cfi_offset 13, -12
 2245              		.cfi_offset 11, -16
 2246              	.LCFI13:
 2247              		.cfi_def_cfa 11, 4
  81:../src/pbs.c  **** 
  82:../src/pbs.c  **** 
  83:../src/pbs.c  **** 		while( (PDATG & PB_LEFT) && (PDATG & PB_RIGHT) );
 2248              		.loc 1 83 0
 2249 0218 0000A0E1 		mov	r0, r0	@ nop
 2250              	.L33:
 2251              		.loc 1 83 0 is_stmt 0 discriminator 1
 2252 021c 68309FE5 		ldr	r3, .L35
 2253 0220 003093E5 		ldr	r3, [r3, #0]
 2254 0224 403003E2 		and	r3, r3, #64
 2255 0228 000053E3 		cmp	r3, #0
 2256 022c 0400000A 		beq	.L32
 2257              		.loc 1 83 0 discriminator 2
 2258 0230 54309FE5 		ldr	r3, .L35
 2259 0234 003093E5 		ldr	r3, [r3, #0]
 2260 0238 803003E2 		and	r3, r3, #128
 2261 023c 000053E3 		cmp	r3, #0
 2262 0240 F5FFFF1A 		bne	.L33
 2263              	.L32:
  84:../src/pbs.c  **** 	    sw_delay_ms( PB_KEYDOWN_DELAY );
 2264              		.loc 1 84 0 is_stmt 1
 2265 0244 1E00A0E3 		mov	r0, #30
 2266 0248 FEFFFFEB 		bl	sw_delay_ms
  85:../src/pbs.c  **** 
  86:../src/pbs.c  **** 
  87:../src/pbs.c  **** 		while( !((PDATG & PB_LEFT) && (PDATG & PB_RIGHT)) );
 2267              		.loc 1 87 0
 2268 024c 0000A0E1 		mov	r0, r0	@ nop
 2269              	.L34:
 2270              		.loc 1 87 0 is_stmt 0 discriminator 1
 2271 0250 34309FE5 		ldr	r3, .L35
 2272 0254 003093E5 		ldr	r3, [r3, #0]
 2273 0258 403003E2 		and	r3, r3, #64
 2274 025c 000053E3 		cmp	r3, #0
 2275 0260 FAFFFF0A 		beq	.L34
 2276              		.loc 1 87 0 discriminator 2
 2277 0264 20309FE5 		ldr	r3, .L35
 2278 0268 003093E5 		ldr	r3, [r3, #0]
 2279 026c 803003E2 		and	r3, r3, #128
 2280 0270 000053E3 		cmp	r3, #0
 2281 0274 F5FFFF0A 		beq	.L34
  88:../src/pbs.c  **** 	    sw_delay_ms( PB_KEYUP_DELAY );
 2282              		.loc 1 88 0 is_stmt 1
 2283 0278 6400A0E3 		mov	r0, #100
 2284 027c FEFFFFEB 		bl	sw_delay_ms
  89:../src/pbs.c  **** 
  90:../src/pbs.c  **** 
  91:../src/pbs.c  **** }
 2285              		.loc 1 91 0
 2286 0280 0CD04BE2 		sub	sp, fp, #12
 2287 0284 00689DE8 		ldmfd	sp, {fp, sp, lr}
 2288 0288 1EFF2FE1 		bx	lr
 2289              	.L36:
 2290              		.align	2
 2291              	.L35:
 2292 028c 4400D201 		.word	30539844
 2293              		.cfi_endproc
 2294              	.LFE6:
 2296              		.align	2
 2297              		.global	pb_getchar
 2299              	pb_getchar:
 2300              	.LFB7:
  92:../src/pbs.c  **** 
  93:../src/pbs.c  **** uint8 pb_getchar( void )
  94:../src/pbs.c  **** {
 2301              		.loc 1 94 0
 2302              		.cfi_startproc
 2303              		@ Function supports interworking.
 2304              		@ args = 0, pretend = 0, frame = 8
 2305              		@ frame_needed = 1, uses_anonymous_args = 0
 2306 0290 0DC0A0E1 		mov	ip, sp
 2307              	.LCFI14:
 2308              		.cfi_def_cfa_register 12
 2309 0294 00D82DE9 		stmfd	sp!, {fp, ip, lr, pc}
 2310 0298 04B04CE2 		sub	fp, ip, #4
 2311              		.cfi_offset 14, -8
 2312              		.cfi_offset 13, -12
 2313              		.cfi_offset 11, -16
 2314              	.LCFI15:
 2315              		.cfi_def_cfa 11, 4
 2316 029c 08D04DE2 		sub	sp, sp, #8
  95:../src/pbs.c  **** 	uint8 res;
  96:../src/pbs.c  **** 
  97:../src/pbs.c  **** 	while( (PDATG & PB_LEFT) && (PDATG & PB_RIGHT) );
 2317              		.loc 1 97 0
 2318 02a0 0000A0E1 		mov	r0, r0	@ nop
 2319              	.L39:
 2320              		.loc 1 97 0 is_stmt 0 discriminator 1
 2321 02a4 7C309FE5 		ldr	r3, .L41
 2322 02a8 003093E5 		ldr	r3, [r3, #0]
 2323 02ac 403003E2 		and	r3, r3, #64
 2324 02b0 000053E3 		cmp	r3, #0
 2325 02b4 0400000A 		beq	.L38
 2326              		.loc 1 97 0 discriminator 2
 2327 02b8 68309FE5 		ldr	r3, .L41
 2328 02bc 003093E5 		ldr	r3, [r3, #0]
 2329 02c0 803003E2 		and	r3, r3, #128
 2330 02c4 000053E3 		cmp	r3, #0
 2331 02c8 F5FFFF1A 		bne	.L39
 2332              	.L38:
  98:../src/pbs.c  ****     sw_delay_ms( PB_KEYDOWN_DELAY );
 2333              		.loc 1 98 0 is_stmt 1
 2334 02cc 1E00A0E3 		mov	r0, #30
 2335 02d0 FEFFFFEB 		bl	sw_delay_ms
  99:../src/pbs.c  **** 
 100:../src/pbs.c  ****     res = pb_scan();
 2336              		.loc 1 100 0
 2337 02d4 FEFFFFEB 		bl	pb_scan
 2338 02d8 0030A0E1 		mov	r3, r0
 2339 02dc 0D304BE5 		strb	r3, [fp, #-13]
 101:../src/pbs.c  **** 
 102:../src/pbs.c  **** 	while( !((PDATG & PB_LEFT) && (PDATG & PB_RIGHT)) );
 2340              		.loc 1 102 0
 2341 02e0 0000A0E1 		mov	r0, r0	@ nop
 2342              	.L40:
 2343              		.loc 1 102 0 is_stmt 0 discriminator 1
 2344 02e4 3C309FE5 		ldr	r3, .L41
 2345 02e8 003093E5 		ldr	r3, [r3, #0]
 2346 02ec 403003E2 		and	r3, r3, #64
 2347 02f0 000053E3 		cmp	r3, #0
 2348 02f4 FAFFFF0A 		beq	.L40
 2349              		.loc 1 102 0 discriminator 2
 2350 02f8 28309FE5 		ldr	r3, .L41
 2351 02fc 003093E5 		ldr	r3, [r3, #0]
 2352 0300 803003E2 		and	r3, r3, #128
 2353 0304 000053E3 		cmp	r3, #0
 2354 0308 F5FFFF0A 		beq	.L40
 103:../src/pbs.c  ****     sw_delay_ms( PB_KEYUP_DELAY );
 2355              		.loc 1 103 0 is_stmt 1
 2356 030c 6400A0E3 		mov	r0, #100
 2357 0310 FEFFFFEB 		bl	sw_delay_ms
 104:../src/pbs.c  **** 
 105:../src/pbs.c  ****     return res;
 2358              		.loc 1 105 0
 2359 0314 0D305BE5 		ldrb	r3, [fp, #-13]	@ zero_extendqisi2
 106:../src/pbs.c  **** }
 2360              		.loc 1 106 0
 2361 0318 0300A0E1 		mov	r0, r3
 2362 031c 0CD04BE2 		sub	sp, fp, #12
 2363 0320 00689DE8 		ldmfd	sp, {fp, sp, lr}
 2364 0324 1EFF2FE1 		bx	lr
 2365              	.L42:
 2366              		.align	2
 2367              	.L41:
 2368 0328 4400D201 		.word	30539844
 2369              		.cfi_endproc
 2370              	.LFE7:
 2372              		.align	2
 2373              		.global	pb_getchartime
 2375              	pb_getchartime:
 2376              	.LFB8:
 107:../src/pbs.c  **** 
 108:../src/pbs.c  **** uint8 pb_getchartime( uint16 *ms )
 109:../src/pbs.c  **** {
 2377              		.loc 1 109 0
 2378              		.cfi_startproc
 2379              		@ Function supports interworking.
 2380              		@ args = 0, pretend = 0, frame = 16
 2381              		@ frame_needed = 1, uses_anonymous_args = 0
 2382 032c 0DC0A0E1 		mov	ip, sp
 2383              	.LCFI16:
 2384              		.cfi_def_cfa_register 12
 2385 0330 00D82DE9 		stmfd	sp!, {fp, ip, lr, pc}
 2386 0334 04B04CE2 		sub	fp, ip, #4
 2387              		.cfi_offset 14, -8
 2388              		.cfi_offset 13, -12
 2389              		.cfi_offset 11, -16
 2390              	.LCFI17:
 2391              		.cfi_def_cfa 11, 4
 2392 0338 10D04DE2 		sub	sp, sp, #16
 2393 033c 18000BE5 		str	r0, [fp, #-24]
 110:../src/pbs.c  ****     uint8 scancode;
 111:../src/pbs.c  ****     
 112:../src/pbs.c  ****     while( (PDATG & PB_LEFT) && (PDATG & PB_RIGHT) );
 2394              		.loc 1 112 0
 2395 0340 0000A0E1 		mov	r0, r0	@ nop
 2396              	.L45:
 2397              		.loc 1 112 0 is_stmt 0 discriminator 1
 2398 0344 A8309FE5 		ldr	r3, .L47
 2399 0348 003093E5 		ldr	r3, [r3, #0]
 2400 034c 403003E2 		and	r3, r3, #64
 2401 0350 000053E3 		cmp	r3, #0
 2402 0354 0400000A 		beq	.L44
 2403              		.loc 1 112 0 discriminator 2
 2404 0358 94309FE5 		ldr	r3, .L47
 2405 035c 003093E5 		ldr	r3, [r3, #0]
 2406 0360 803003E2 		and	r3, r3, #128
 2407 0364 000053E3 		cmp	r3, #0
 2408 0368 F5FFFF1A 		bne	.L45
 2409              	.L44:
 113:../src/pbs.c  ****     timer3_start();
 2410              		.loc 1 113 0 is_stmt 1
 2411 036c FEFFFFEB 		bl	timer3_start
 114:../src/pbs.c  ****     sw_delay_ms( PB_KEYDOWN_DELAY );
 2412              		.loc 1 114 0
 2413 0370 1E00A0E3 		mov	r0, #30
 2414 0374 FEFFFFEB 		bl	sw_delay_ms
 115:../src/pbs.c  ****     
 116:../src/pbs.c  ****     scancode = pb_scan();
 2415              		.loc 1 116 0
 2416 0378 FEFFFFEB 		bl	pb_scan
 2417 037c 0030A0E1 		mov	r3, r0
 2418 0380 0D304BE5 		strb	r3, [fp, #-13]
 117:../src/pbs.c  ****     
 118:../src/pbs.c  ****     while( !((PDATG & PB_LEFT) && (PDATG & PB_RIGHT)) );
 2419              		.loc 1 118 0
 2420 0384 0000A0E1 		mov	r0, r0	@ nop
 2421              	.L46:
 2422              		.loc 1 118 0 is_stmt 0 discriminator 1
 2423 0388 64309FE5 		ldr	r3, .L47
 2424 038c 003093E5 		ldr	r3, [r3, #0]
 2425 0390 403003E2 		and	r3, r3, #64
 2426 0394 000053E3 		cmp	r3, #0
 2427 0398 FAFFFF0A 		beq	.L46
 2428              		.loc 1 118 0 discriminator 2
 2429 039c 50309FE5 		ldr	r3, .L47
 2430 03a0 003093E5 		ldr	r3, [r3, #0]
 2431 03a4 803003E2 		and	r3, r3, #128
 2432 03a8 000053E3 		cmp	r3, #0
 2433 03ac F5FFFF0A 		beq	.L46
 119:../src/pbs.c  **** 
 120:../src/pbs.c  ****     *ms = timer3_stop() / 10;
 2434              		.loc 1 120 0 is_stmt 1
 2435 03b0 FEFFFFEB 		bl	timer3_stop
 2436 03b4 0030A0E1 		mov	r3, r0
 2437 03b8 0320A0E1 		mov	r2, r3
 2438 03bc 34309FE5 		ldr	r3, .L47+4
 2439 03c0 921383E0 		umull	r1, r3, r2, r3
 2440 03c4 A331A0E1 		mov	r3, r3, lsr #3
 2441 03c8 0338A0E1 		mov	r3, r3, asl #16
 2442 03cc 2328A0E1 		mov	r2, r3, lsr #16
 2443 03d0 18301BE5 		ldr	r3, [fp, #-24]
 2444 03d4 B020C3E1 		strh	r2, [r3, #0]	@ movhi
 121:../src/pbs.c  ****     sw_delay_ms( PB_KEYUP_DELAY );
 2445              		.loc 1 121 0
 2446 03d8 6400A0E3 		mov	r0, #100
 2447 03dc FEFFFFEB 		bl	sw_delay_ms
 122:../src/pbs.c  **** 
 123:../src/pbs.c  ****     return scancode;
 2448              		.loc 1 123 0
 2449 03e0 0D305BE5 		ldrb	r3, [fp, #-13]	@ zero_extendqisi2
 124:../src/pbs.c  **** }
 2450              		.loc 1 124 0
 2451 03e4 0300A0E1 		mov	r0, r3
 2452 03e8 0CD04BE2 		sub	sp, fp, #12
 2453 03ec 00689DE8 		ldmfd	sp, {fp, sp, lr}
 2454 03f0 1EFF2FE1 		bx	lr
 2455              	.L48:
 2456              		.align	2
 2457              	.L47:
 2458 03f4 4400D201 		.word	30539844
 2459 03f8 CDCCCCCC 		.word	-858993459
 2460              		.cfi_endproc
 2461              	.LFE8:
 2463              		.align	2
 2464              		.global	pb_timeout_getchar
 2466              	pb_timeout_getchar:
 2467              	.LFB9:
 125:../src/pbs.c  **** 
 126:../src/pbs.c  **** uint8 pb_timeout_getchar( uint16 ms )
 127:../src/pbs.c  **** {
 2468              		.loc 1 127 0
 2469              		.cfi_startproc
 2470              		@ Function supports interworking.
 2471              		@ args = 0, pretend = 0, frame = 16
 2472              		@ frame_needed = 1, uses_anonymous_args = 0
 2473 03fc 0DC0A0E1 		mov	ip, sp
 2474              	.LCFI18:
 2475              		.cfi_def_cfa_register 12
 2476 0400 00D82DE9 		stmfd	sp!, {fp, ip, lr, pc}
 2477 0404 04B04CE2 		sub	fp, ip, #4
 2478              		.cfi_offset 14, -8
 2479              		.cfi_offset 13, -12
 2480              		.cfi_offset 11, -16
 2481              	.LCFI19:
 2482              		.cfi_def_cfa 11, 4
 2483 0408 10D04DE2 		sub	sp, sp, #16
 2484 040c 0030A0E1 		mov	r3, r0
 2485 0410 B6314BE1 		strh	r3, [fp, #-22]	@ movhi
 128:../src/pbs.c  **** 	
 129:../src/pbs.c  **** 	uint8 scancode;
 130:../src/pbs.c  **** 
 131:../src/pbs.c  **** 	timer3_start_timeout (ms);
 2486              		.loc 1 131 0
 2487 0414 B6315BE1 		ldrh	r3, [fp, #-22]
 2488 0418 0300A0E1 		mov	r0, r3
 2489 041c FEFFFFEB 		bl	timer3_start_timeout
 132:../src/pbs.c  **** 	if(!timer3_timeout ()){ //duda
 2490              		.loc 1 132 0
 2491 0420 FEFFFFEB 		bl	timer3_timeout
 2492 0424 0030A0E1 		mov	r3, r0
 2493 0428 000053E3 		cmp	r3, #0
 2494 042c 0100001A 		bne	.L53
 133:../src/pbs.c  **** 
 134:../src/pbs.c  **** 		return PB_TIMEOUT;
 2495              		.loc 1 134 0
 2496 0430 FE30A0E3 		mov	r3, #254
 2497 0434 170000EA 		b	.L49
 2498              	.L53:
 135:../src/pbs.c  **** 
 136:../src/pbs.c  **** 	}
 137:../src/pbs.c  **** 	
 138:../src/pbs.c  **** 	while(PDATG & ~(3 << 6));
 2499              		.loc 1 138 0
 2500 0438 0000A0E1 		mov	r0, r0	@ nop
 2501              	.L51:
 2502              		.loc 1 138 0 is_stmt 0 discriminator 1
 2503 043c 64309FE5 		ldr	r3, .L54
 2504 0440 003093E5 		ldr	r3, [r3, #0]
 2505 0444 C030C3E3 		bic	r3, r3, #192
 2506 0448 000053E3 		cmp	r3, #0
 2507 044c FAFFFF1A 		bne	.L51
 139:../src/pbs.c  **** 	sw_delay_ms (PB_KEYDOWN_DELAY);
 2508              		.loc 1 139 0 is_stmt 1
 2509 0450 1E00A0E3 		mov	r0, #30
 2510 0454 FEFFFFEB 		bl	sw_delay_ms
 140:../src/pbs.c  **** 
 141:../src/pbs.c  **** 	scancode = pb_scan();
 2511              		.loc 1 141 0
 2512 0458 FEFFFFEB 		bl	pb_scan
 2513 045c 0030A0E1 		mov	r3, r0
 2514 0460 0D304BE5 		strb	r3, [fp, #-13]
 142:../src/pbs.c  **** 
 143:../src/pbs.c  **** 	while( PDATG & (1 << 6) || PDATG & (1 << 7) );
 2515              		.loc 1 143 0
 2516 0464 0000A0E1 		mov	r0, r0	@ nop
 2517              	.L52:
 2518              		.loc 1 143 0 is_stmt 0 discriminator 1
 2519 0468 38309FE5 		ldr	r3, .L54
 2520 046c 003093E5 		ldr	r3, [r3, #0]
 2521 0470 403003E2 		and	r3, r3, #64
 2522 0474 000053E3 		cmp	r3, #0
 2523 0478 FAFFFF1A 		bne	.L52
 2524              		.loc 1 143 0 discriminator 2
 2525 047c 24309FE5 		ldr	r3, .L54
 2526 0480 003093E5 		ldr	r3, [r3, #0]
 2527 0484 803003E2 		and	r3, r3, #128
 2528 0488 000053E3 		cmp	r3, #0
 2529 048c F5FFFF1A 		bne	.L52
 144:../src/pbs.c  **** 	sw_delay_ms( PB_KEYUP_DELAY );	
 2530              		.loc 1 144 0 is_stmt 1
 2531 0490 6400A0E3 		mov	r0, #100
 2532 0494 FEFFFFEB 		bl	sw_delay_ms
 2533              	.L49:
 145:../src/pbs.c  **** 
 146:../src/pbs.c  **** }
 2534              		.loc 1 146 0
 2535 0498 0300A0E1 		mov	r0, r3
 2536 049c 0CD04BE2 		sub	sp, fp, #12
 2537 04a0 00689DE8 		ldmfd	sp, {fp, sp, lr}
 2538 04a4 1EFF2FE1 		bx	lr
 2539              	.L55:
 2540              		.align	2
 2541              	.L54:
 2542 04a8 4400D201 		.word	30539844
 2543              		.cfi_endproc
 2544              	.LFE9:
 2546              		.align	2
 2547              		.global	pbs_open
 2549              	pbs_open:
 2550              	.LFB10:
 147:../src/pbs.c  **** 
 148:../src/pbs.c  **** void pbs_open( void (*isr)(void) )
 149:../src/pbs.c  **** {
 2551              		.loc 1 149 0
 2552              		.cfi_startproc
 2553              		@ Function supports interworking.
 2554              		@ args = 0, pretend = 0, frame = 8
 2555              		@ frame_needed = 1, uses_anonymous_args = 0
 2556 04ac 0DC0A0E1 		mov	ip, sp
 2557              	.LCFI20:
 2558              		.cfi_def_cfa_register 12
 2559 04b0 00D82DE9 		stmfd	sp!, {fp, ip, lr, pc}
 2560 04b4 04B04CE2 		sub	fp, ip, #4
 2561              		.cfi_offset 14, -8
 2562              		.cfi_offset 13, -12
 2563              		.cfi_offset 11, -16
 2564              	.LCFI21:
 2565              		.cfi_def_cfa 11, 4
 2566 04b8 08D04DE2 		sub	sp, sp, #8
 2567 04bc 10000BE5 		str	r0, [fp, #-16]
 150:../src/pbs.c  ****     pISR_PB   = (uint32) isr;
 2568              		.loc 1 150 0
 2569 04c0 3C309FE5 		ldr	r3, .L57
 2570 04c4 10201BE5 		ldr	r2, [fp, #-16]
 2571 04c8 002083E5 		str	r2, [r3, #0]
 151:../src/pbs.c  ****     EXTINTPND = 0xF;
 2572              		.loc 1 151 0
 2573 04cc 34309FE5 		ldr	r3, .L57+4
 2574 04d0 0F20A0E3 		mov	r2, #15
 2575 04d4 002083E5 		str	r2, [r3, #0]
 152:../src/pbs.c  ****     I_ISPC    = BIT_EINT4567;
 2576              		.loc 1 152 0
 2577 04d8 2C309FE5 		ldr	r3, .L57+8
 2578 04dc 0226A0E3 		mov	r2, #2097152
 2579 04e0 002083E5 		str	r2, [r3, #0]
 153:../src/pbs.c  ****     INTMSK     &= ~(BIT_GLOBAL | BIT_EINT4567);
 2580              		.loc 1 153 0
 2581 04e4 24309FE5 		ldr	r3, .L57+12
 2582 04e8 20209FE5 		ldr	r2, .L57+12
 2583 04ec 002092E5 		ldr	r2, [r2, #0]
 2584 04f0 4226C2E3 		bic	r2, r2, #69206016
 2585 04f4 002083E5 		str	r2, [r3, #0]
 154:../src/pbs.c  **** }
 2586              		.loc 1 154 0
 2587 04f8 0CD04BE2 		sub	sp, fp, #12
 2588 04fc 00689DE8 		ldmfd	sp, {fp, sp, lr}
 2589 0500 1EFF2FE1 		bx	lr
 2590              	.L58:
 2591              		.align	2
 2592              	.L57:
 2593 0504 74FF7F0C 		.word	209715060
 2594 0508 5400D201 		.word	30539860
 2595 050c 2400E001 		.word	31457316
 2596 0510 0C00E001 		.word	31457292
 2597              		.cfi_endproc
 2598              	.LFE10:
 2600              		.align	2
 2601              		.global	pbs_close
 2603              	pbs_close:
 2604              	.LFB11:
 155:../src/pbs.c  **** 
 156:../src/pbs.c  **** void pbs_close( void )
 157:../src/pbs.c  **** {
 2605              		.loc 1 157 0
 2606              		.cfi_startproc
 2607              		@ Function supports interworking.
 2608              		@ args = 0, pretend = 0, frame = 0
 2609              		@ frame_needed = 1, uses_anonymous_args = 0
 2610 0514 0DC0A0E1 		mov	ip, sp
 2611              	.LCFI22:
 2612              		.cfi_def_cfa_register 12
 2613 0518 00D82DE9 		stmfd	sp!, {fp, ip, lr, pc}
 2614 051c 04B04CE2 		sub	fp, ip, #4
 2615              		.cfi_offset 14, -8
 2616              		.cfi_offset 13, -12
 2617              		.cfi_offset 11, -16
 2618              	.LCFI23:
 2619              		.cfi_def_cfa 11, 4
 158:../src/pbs.c  ****     INTMSK  |= BIT_EINT4567;
 2620              		.loc 1 158 0
 2621 0520 24309FE5 		ldr	r3, .L60
 2622 0524 20209FE5 		ldr	r2, .L60
 2623 0528 002092E5 		ldr	r2, [r2, #0]
 2624 052c 022682E3 		orr	r2, r2, #2097152
 2625 0530 002083E5 		str	r2, [r3, #0]
 159:../src/pbs.c  ****     pISR_PB  = (uint32) isr_PB_dummy;
 2626              		.loc 1 159 0
 2627 0534 14309FE5 		ldr	r3, .L60+4
 2628 0538 14209FE5 		ldr	r2, .L60+8
 2629 053c 002083E5 		str	r2, [r3, #0]
 160:../src/pbs.c  **** }
 2630              		.loc 1 160 0
 2631 0540 0CD04BE2 		sub	sp, fp, #12
 2632 0544 00689DE8 		ldmfd	sp, {fp, sp, lr}
 2633 0548 1EFF2FE1 		bx	lr
 2634              	.L61:
 2635              		.align	2
 2636              	.L60:
 2637 054c 0C00E001 		.word	31457292
 2638 0550 74FF7F0C 		.word	209715060
 2639 0554 00000000 		.word	isr_PB_dummy
 2640              		.cfi_endproc
 2641              	.LFE11:
 2643              	.Letext0: